target datalayout = "e-m:e-p270:32:32-p271:32:32-p272:64:64-i64:64-i128:128-f80:128-n8:16:32:64-S128"
target triple = "x86_64-unknown-linux-gnu"

%"class.__gnu_cxx::__normal_iterator.77" = type { ptr }
%"class.ue2::graph_detail::vertex_descriptor" = type { ptr, i64 }
%class.anon = type { ptr }
%"struct.__gnu_cxx::__ops::_Iter_comp_iter" = type { %class.anon }

; Function Attrs: mustprogress nounwind uwtable
define linkonce_odr hidden void @_ZN9__gnu_cxx17__normal_iteratorIPN3ue212graph_detail17vertex_descriptorINS1_9ue2_graphINS1_8NGHolderENS1_19NFAGraphVertexPropsENS1_17NFAGraphEdgePropsEEEEESt6vectorIS9_SaIS9_EEEC2ERKSA_(ptr noundef nonnull align 8 dereferenceable(8) %this, ptr noundef nonnull align 8 dereferenceable(8) %__i) unnamed_addr #1 comdat align 2 {
entry:
  %this.addr = alloca ptr, align 8
  %__i.addr = alloca ptr, align 8
  store ptr %this, ptr %this.addr, align 8
  store ptr %__i, ptr %__i.addr, align 8
  %this1 = load ptr, ptr %this.addr, align 8
  %_M_current = getelementptr inbounds %"class.__gnu_cxx::__normal_iterator.77", ptr %this1, i32 0, i32 0
  %0 = load ptr, ptr %__i.addr, align 8
  %1 = load ptr, ptr %0, align 8
  store ptr %1, ptr %_M_current, align 8
  ret void
}

; Function Attrs: mustprogress nounwind uwtable
define linkonce_odr hidden noundef nonnull align 8 dereferenceable(8) ptr @_ZNK9__gnu_cxx17__normal_iteratorIPN3ue212graph_detail17vertex_descriptorINS1_9ue2_graphINS1_8NGHolderENS1_19NFAGraphVertexPropsENS1_17NFAGraphEdgePropsEEEEESt6vectorIS9_SaIS9_EEE4baseEv(ptr noundef nonnull align 8 dereferenceable(8) %this) #1 comdat align 2 {
entry:
  %this.addr = alloca ptr, align 8
  store ptr %this, ptr %this.addr, align 8
  %this1 = load ptr, ptr %this.addr, align 8
  %_M_current = getelementptr inbounds %"class.__gnu_cxx::__normal_iterator.77", ptr %this1, i32 0, i32 0
  ret ptr %_M_current
}

; Function Attrs: mustprogress nounwind uwtable
define linkonce_odr hidden ptr @_ZNK9__gnu_cxx17__normal_iteratorIPN3ue212graph_detail17vertex_descriptorINS1_9ue2_graphINS1_8NGHolderENS1_19NFAGraphVertexPropsENS1_17NFAGraphEdgePropsEEEEESt6vectorIS9_SaIS9_EEEplEl(ptr noundef nonnull align 8 dereferenceable(8) %this, i64 noundef %__n) #1 comdat align 2 {
entry:
  %retval = alloca %"class.__gnu_cxx::__normal_iterator.77", align 8
  %this.addr = alloca ptr, align 8
  %__n.addr = alloca i64, align 8
  %ref.tmp = alloca ptr, align 8
  store ptr %this, ptr %this.addr, align 8
  store i64 %__n, ptr %__n.addr, align 8
  %this1 = load ptr, ptr %this.addr, align 8
  %_M_current = getelementptr inbounds %"class.__gnu_cxx::__normal_iterator.77", ptr %this1, i32 0, i32 0
  %0 = load ptr, ptr %_M_current, align 8
  %1 = load i64, ptr %__n.addr, align 8
  %add.ptr = getelementptr inbounds %"class.ue2::graph_detail::vertex_descriptor", ptr %0, i64 %1
  store ptr %add.ptr, ptr %ref.tmp, align 8
  call void @_ZN9__gnu_cxx17__normal_iteratorIPN3ue212graph_detail17vertex_descriptorINS1_9ue2_graphINS1_8NGHolderENS1_19NFAGraphVertexPropsENS1_17NFAGraphEdgePropsEEEEESt6vectorIS9_SaIS9_EEEC2ERKSA_(ptr noundef nonnull align 8 dereferenceable(8) %retval, ptr noundef nonnull align 8 dereferenceable(8) %ref.tmp) #2
  %coerce.dive = getelementptr inbounds %"class.__gnu_cxx::__normal_iterator.77", ptr %retval, i32 0, i32 0
  %2 = load ptr, ptr %coerce.dive, align 8
  ret ptr %2
}

; Function Attrs: mustprogress nounwind uwtable
define linkonce_odr hidden noundef i64 @_ZN9__gnu_cxxmiIPN3ue212graph_detail17vertex_descriptorINS1_9ue2_graphINS1_8NGHolderENS1_19NFAGraphVertexPropsENS1_17NFAGraphEdgePropsEEEEESt6vectorIS9_SaIS9_EEEENS_17__normal_iteratorIT_T0_E15difference_typeERKSH_SK_(ptr noundef nonnull align 8 dereferenceable(8) %__lhs, ptr noundef nonnull align 8 dereferenceable(8) %__rhs) #1 comdat {
entry:
  %__lhs.addr = alloca ptr, align 8
  %__rhs.addr = alloca ptr, align 8
  store ptr %__lhs, ptr %__lhs.addr, align 8
  store ptr %__rhs, ptr %__rhs.addr, align 8
  %0 = load ptr, ptr %__lhs.addr, align 8
  %call = call noundef nonnull align 8 dereferenceable(8) ptr @_ZNK9__gnu_cxx17__normal_iteratorIPN3ue212graph_detail17vertex_descriptorINS1_9ue2_graphINS1_8NGHolderENS1_19NFAGraphVertexPropsENS1_17NFAGraphEdgePropsEEEEESt6vectorIS9_SaIS9_EEE4baseEv(ptr noundef nonnull align 8 dereferenceable(8) %0) #2
  %1 = load ptr, ptr %call, align 8
  %2 = load ptr, ptr %__rhs.addr, align 8
  %call1 = call noundef nonnull align 8 dereferenceable(8) ptr @_ZNK9__gnu_cxx17__normal_iteratorIPN3ue212graph_detail17vertex_descriptorINS1_9ue2_graphINS1_8NGHolderENS1_19NFAGraphVertexPropsENS1_17NFAGraphEdgePropsEEEEESt6vectorIS9_SaIS9_EEE4baseEv(ptr noundef nonnull align 8 dereferenceable(8) %2) #2
  %3 = load ptr, ptr %call1, align 8
  %sub.ptr.lhs.cast = ptrtoint ptr %1 to i64
  %sub.ptr.rhs.cast = ptrtoint ptr %3 to i64
  %sub.ptr.sub = sub i64 %sub.ptr.lhs.cast, %sub.ptr.rhs.cast
  %sub.ptr.div = sdiv exact i64 %sub.ptr.sub, 16
  ret i64 %sub.ptr.div
}

; Function Attrs: mustprogress uwtable
define internal void @"_ZSt21__inplace_stable_sortIN9__gnu_cxx17__normal_iteratorIPN3ue212graph_detail17vertex_descriptorINS2_9ue2_graphINS2_8NGHolderENS2_19NFAGraphVertexPropsENS2_17NFAGraphEdgePropsEEEEESt6vectorISA_SaISA_EEEENS0_5__ops15_Iter_comp_iterIZNS2_L20pruneUsingSuccessorsERS6_RNS2_14PrunePathsInfoESA_NS2_8som_typeEE3$_0EEEvT_SO_T0_"(ptr %__first.coerce, ptr %__last.coerce, ptr %__comp.coerce) #3 {
entry:
  %__first = alloca %"class.__gnu_cxx::__normal_iterator.77", align 8
  %__last = alloca %"class.__gnu_cxx::__normal_iterator.77", align 8
  %__comp = alloca %"struct.__gnu_cxx::__ops::_Iter_comp_iter", align 8
  %agg.tmp = alloca %"class.__gnu_cxx::__normal_iterator.77", align 8
  %agg.tmp4 = alloca %"class.__gnu_cxx::__normal_iterator.77", align 8
  %agg.tmp5 = alloca %"struct.__gnu_cxx::__ops::_Iter_comp_iter", align 8
  %__middle = alloca %"class.__gnu_cxx::__normal_iterator.77", align 8
  %agg.tmp13 = alloca %"class.__gnu_cxx::__normal_iterator.77", align 8
  %agg.tmp14 = alloca %"class.__gnu_cxx::__normal_iterator.77", align 8
  %agg.tmp15 = alloca %"struct.__gnu_cxx::__ops::_Iter_comp_iter", align 8
  %agg.tmp20 = alloca %"class.__gnu_cxx::__normal_iterator.77", align 8
  %agg.tmp21 = alloca %"class.__gnu_cxx::__normal_iterator.77", align 8
  %agg.tmp22 = alloca %"struct.__gnu_cxx::__ops::_Iter_comp_iter", align 8
  %agg.tmp27 = alloca %"class.__gnu_cxx::__normal_iterator.77", align 8
  %agg.tmp28 = alloca %"class.__gnu_cxx::__normal_iterator.77", align 8
  %agg.tmp29 = alloca %"class.__gnu_cxx::__normal_iterator.77", align 8
  %agg.tmp32 = alloca %"struct.__gnu_cxx::__ops::_Iter_comp_iter", align 8
  %coerce.dive = getelementptr inbounds %"class.__gnu_cxx::__normal_iterator.77", ptr %__first, i32 0, i32 0
  store ptr %__first.coerce, ptr %coerce.dive, align 8
  %coerce.dive1 = getelementptr inbounds %"class.__gnu_cxx::__normal_iterator.77", ptr %__last, i32 0, i32 0
  store ptr %__last.coerce, ptr %coerce.dive1, align 8
  %coerce.dive2 = getelementptr inbounds %"struct.__gnu_cxx::__ops::_Iter_comp_iter", ptr %__comp, i32 0, i32 0
  %coerce.dive3 = getelementptr inbounds %class.anon, ptr %coerce.dive2, i32 0, i32 0
  store ptr %__comp.coerce, ptr %coerce.dive3, align 8
  %call = call noundef i64 @_ZN9__gnu_cxxmiIPN3ue212graph_detail17vertex_descriptorINS1_9ue2_graphINS1_8NGHolderENS1_19NFAGraphVertexPropsENS1_17NFAGraphEdgePropsEEEEESt6vectorIS9_SaIS9_EEEENS_17__normal_iteratorIT_T0_E15difference_typeERKSH_SK_(ptr noundef nonnull align 8 dereferenceable(8) %__last, ptr noundef nonnull align 8 dereferenceable(8) %__first) #2
  %cmp = icmp slt i64 %call, 15
  br i1 %cmp, label %if.then, label %if.end

if.then:                                          ; preds = %entry
  call void @llvm.memcpy.p0.p0.i64(ptr align 8 %agg.tmp, ptr align 8 %__first, i64 8, i1 false)
  call void @llvm.memcpy.p0.p0.i64(ptr align 8 %agg.tmp4, ptr align 8 %__last, i64 8, i1 false)
  call void @llvm.memcpy.p0.p0.i64(ptr align 8 %agg.tmp5, ptr align 8 %__comp, i64 8, i1 false)
  %coerce.dive6 = getelementptr inbounds %"class.__gnu_cxx::__normal_iterator.77", ptr %agg.tmp, i32 0, i32 0
  %0 = load ptr, ptr %coerce.dive6, align 8
  %coerce.dive7 = getelementptr inbounds %"class.__gnu_cxx::__normal_iterator.77", ptr %agg.tmp4, i32 0, i32 0
  %1 = load ptr, ptr %coerce.dive7, align 8
  %coerce.dive8 = getelementptr inbounds %"struct.__gnu_cxx::__ops::_Iter_comp_iter", ptr %agg.tmp5, i32 0, i32 0
  %coerce.dive9 = getelementptr inbounds %class.anon, ptr %coerce.dive8, i32 0, i32 0
  %2 = load ptr, ptr %coerce.dive9, align 8
  call void @"_ZSt16__insertion_sortIN9__gnu_cxx17__normal_iteratorIPN3ue212graph_detail17vertex_descriptorINS2_9ue2_graphINS2_8NGHolderENS2_19NFAGraphVertexPropsENS2_17NFAGraphEdgePropsEEEEESt6vectorISA_SaISA_EEEENS0_5__ops15_Iter_comp_iterIZNS2_L20pruneUsingSuccessorsERS6_RNS2_14PrunePathsInfoESA_NS2_8som_typeEE3$_0EEEvT_SO_T0_"(ptr %0, ptr %1, ptr %2)
  br label %return

if.end:                                           ; preds = %entry
  %call10 = call noundef i64 @_ZN9__gnu_cxxmiIPN3ue212graph_detail17vertex_descriptorINS1_9ue2_graphINS1_8NGHolderENS1_19NFAGraphVertexPropsENS1_17NFAGraphEdgePropsEEEEESt6vectorIS9_SaIS9_EEEENS_17__normal_iteratorIT_T0_E15difference_typeERKSH_SK_(ptr noundef nonnull align 8 dereferenceable(8) %__last, ptr noundef nonnull align 8 dereferenceable(8) %__first) #2
  %div = sdiv i64 %call10, 2
  %call11 = call ptr @_ZNK9__gnu_cxx17__normal_iteratorIPN3ue212graph_detail17vertex_descriptorINS1_9ue2_graphINS1_8NGHolderENS1_19NFAGraphVertexPropsENS1_17NFAGraphEdgePropsEEEEESt6vectorIS9_SaIS9_EEEplEl(ptr noundef nonnull align 8 dereferenceable(8) %__first, i64 noundef %div) #2
  %coerce.dive12 = getelementptr inbounds %"class.__gnu_cxx::__normal_iterator.77", ptr %__middle, i32 0, i32 0
  store ptr %call11, ptr %coerce.dive12, align 8
  call void @llvm.memcpy.p0.p0.i64(ptr align 8 %agg.tmp13, ptr align 8 %__first, i64 8, i1 false)
  call void @llvm.memcpy.p0.p0.i64(ptr align 8 %agg.tmp14, ptr align 8 %__middle, i64 8, i1 false)
  call void @llvm.memcpy.p0.p0.i64(ptr align 8 %agg.tmp15, ptr align 8 %__comp, i64 8, i1 false)
  %coerce.dive16 = getelementptr inbounds %"class.__gnu_cxx::__normal_iterator.77", ptr %agg.tmp13, i32 0, i32 0
  %3 = load ptr, ptr %coerce.dive16, align 8
  %coerce.dive17 = getelementptr inbounds %"class.__gnu_cxx::__normal_iterator.77", ptr %agg.tmp14, i32 0, i32 0
  %4 = load ptr, ptr %coerce.dive17, align 8
  %coerce.dive18 = getelementptr inbounds %"struct.__gnu_cxx::__ops::_Iter_comp_iter", ptr %agg.tmp15, i32 0, i32 0
  %coerce.dive19 = getelementptr inbounds %class.anon, ptr %coerce.dive18, i32 0, i32 0
  %5 = load ptr, ptr %coerce.dive19, align 8
  call void @"_ZSt21__inplace_stable_sortIN9__gnu_cxx17__normal_iteratorIPN3ue212graph_detail17vertex_descriptorINS2_9ue2_graphINS2_8NGHolderENS2_19NFAGraphVertexPropsENS2_17NFAGraphEdgePropsEEEEESt6vectorISA_SaISA_EEEENS0_5__ops15_Iter_comp_iterIZNS2_L20pruneUsingSuccessorsERS6_RNS2_14PrunePathsInfoESA_NS2_8som_typeEE3$_0EEEvT_SO_T0_"(ptr %3, ptr %4, ptr %5)
  call void @llvm.memcpy.p0.p0.i64(ptr align 8 %agg.tmp20, ptr align 8 %__middle, i64 8, i1 false)
  call void @llvm.memcpy.p0.p0.i64(ptr align 8 %agg.tmp21, ptr align 8 %__last, i64 8, i1 false)
  call void @llvm.memcpy.p0.p0.i64(ptr align 8 %agg.tmp22, ptr align 8 %__comp, i64 8, i1 false)
  %coerce.dive23 = getelementptr inbounds %"class.__gnu_cxx::__normal_iterator.77", ptr %agg.tmp20, i32 0, i32 0
  %6 = load ptr, ptr %coerce.dive23, align 8
  %coerce.dive24 = getelementptr inbounds %"class.__gnu_cxx::__normal_iterator.77", ptr %agg.tmp21, i32 0, i32 0
  %7 = load ptr, ptr %coerce.dive24, align 8
  %coerce.dive25 = getelementptr inbounds %"struct.__gnu_cxx::__ops::_Iter_comp_iter", ptr %agg.tmp22, i32 0, i32 0
  %coerce.dive26 = getelementptr inbounds %class.anon, ptr %coerce.dive25, i32 0, i32 0
  %8 = load ptr, ptr %coerce.dive26, align 8
  call void @"_ZSt21__inplace_stable_sortIN9__gnu_cxx17__normal_iteratorIPN3ue212graph_detail17vertex_descriptorINS2_9ue2_graphINS2_8NGHolderENS2_19NFAGraphVertexPropsENS2_17NFAGraphEdgePropsEEEEESt6vectorISA_SaISA_EEEENS0_5__ops15_Iter_comp_iterIZNS2_L20pruneUsingSuccessorsERS6_RNS2_14PrunePathsInfoESA_NS2_8som_typeEE3$_0EEEvT_SO_T0_"(ptr %6, ptr %7, ptr %8)
  call void @llvm.memcpy.p0.p0.i64(ptr align 8 %agg.tmp27, ptr align 8 %__first, i64 8, i1 false)
  call void @llvm.memcpy.p0.p0.i64(ptr align 8 %agg.tmp28, ptr align 8 %__middle, i64 8, i1 false)
  call void @llvm.memcpy.p0.p0.i64(ptr align 8 %agg.tmp29, ptr align 8 %__last, i64 8, i1 false)
  %call30 = call noundef i64 @_ZN9__gnu_cxxmiIPN3ue212graph_detail17vertex_descriptorINS1_9ue2_graphINS1_8NGHolderENS1_19NFAGraphVertexPropsENS1_17NFAGraphEdgePropsEEEEESt6vectorIS9_SaIS9_EEEENS_17__normal_iteratorIT_T0_E15difference_typeERKSH_SK_(ptr noundef nonnull align 8 dereferenceable(8) %__middle, ptr noundef nonnull align 8 dereferenceable(8) %__first) #2
  %call31 = call noundef i64 @_ZN9__gnu_cxxmiIPN3ue212graph_detail17vertex_descriptorINS1_9ue2_graphINS1_8NGHolderENS1_19NFAGraphVertexPropsENS1_17NFAGraphEdgePropsEEEEESt6vectorIS9_SaIS9_EEEENS_17__normal_iteratorIT_T0_E15difference_typeERKSH_SK_(ptr noundef nonnull align 8 dereferenceable(8) %__last, ptr noundef nonnull align 8 dereferenceable(8) %__middle) #2
  call void @llvm.memcpy.p0.p0.i64(ptr align 8 %agg.tmp32, ptr align 8 %__comp, i64 8, i1 false)
  %coerce.dive33 = getelementptr inbounds %"class.__gnu_cxx::__normal_iterator.77", ptr %agg.tmp27, i32 0, i32 0
  %9 = load ptr, ptr %coerce.dive33, align 8
  %coerce.dive34 = getelementptr inbounds %"class.__gnu_cxx::__normal_iterator.77", ptr %agg.tmp28, i32 0, i32 0
  %10 = load ptr, ptr %coerce.dive34, align 8
  %coerce.dive35 = getelementptr inbounds %"class.__gnu_cxx::__normal_iterator.77", ptr %agg.tmp29, i32 0, i32 0
  %11 = load ptr, ptr %coerce.dive35, align 8
  %coerce.dive36 = getelementptr inbounds %"struct.__gnu_cxx::__ops::_Iter_comp_iter", ptr %agg.tmp32, i32 0, i32 0
  %coerce.dive37 = getelementptr inbounds %class.anon, ptr %coerce.dive36, i32 0, i32 0
  %12 = load ptr, ptr %coerce.dive37, align 8
  call void @"_ZSt22__merge_without_bufferIN9__gnu_cxx17__normal_iteratorIPN3ue212graph_detail17vertex_descriptorINS2_9ue2_graphINS2_8NGHolderENS2_19NFAGraphVertexPropsENS2_17NFAGraphEdgePropsEEEEESt6vectorISA_SaISA_EEEElNS0_5__ops15_Iter_comp_iterIZNS2_L20pruneUsingSuccessorsERS6_RNS2_14PrunePathsInfoESA_NS2_8som_typeEE3$_0EEEvT_SO_SO_T0_SP_T1_"(ptr %9, ptr %10, ptr %11, i64 noundef %call30, i64 noundef %call31, ptr %12)
  br label %return

return:                                           ; preds = %if.end, %if.then
  ret void
}