; Function Attrs: mustprogress nofree nosync nounwind memory(readwrite, inaccessiblemem: none) uwtable
define internal fastcc void @"_ZSt21__inplace_stable_sortIN9__gnu_cxx17__normal_iteratorIPN3ue212graph_detail17vertex_descriptorINS2_9ue2_graphINS2_8NGHolderENS2_19NFAGraphVertexPropsENS2_17NFAGraphEdgePropsEEEEESt6vectorISA_SaISA_EEEENS0_5__ops15_Iter_comp_iterIZNS2_L20pruneUsingSuccessorsERS6_RNS2_14PrunePathsInfoESA_NS2_8som_typeEE3$_0EEEvT_SO_T0_"(ptr %__first.coerce, ptr %__last.coerce) unnamed_addr #15 {
entry:
  %sub.ptr.lhs.cast.i = ptrtoint ptr %__last.coerce to i64
  %sub.ptr.rhs.cast.i = ptrtoint ptr %__first.coerce to i64
  %sub.ptr.sub.i = sub i64 %sub.ptr.lhs.cast.i, %sub.ptr.rhs.cast.i
  %sub.ptr.div.i = ashr exact i64 %sub.ptr.sub.i, 4
  %cmp = icmp slt i64 %sub.ptr.div.i, 15
  br i1 %cmp, label %if.then, label %if.end

if.then:                                          ; preds = %entry
  tail call fastcc void @"_ZSt16__insertion_sortIN9__gnu_cxx17__normal_iteratorIPN3ue212graph_detail17vertex_descriptorINS2_9ue2_graphINS2_8NGHolderENS2_19NFAGraphVertexPropsENS2_17NFAGraphEdgePropsEEEEESt6vectorISA_SaISA_EEEENS0_5__ops15_Iter_comp_iterIZNS2_L20pruneUsingSuccessorsERS6_RNS2_14PrunePathsInfoESA_NS2_8som_typeEE3$_0EEEvT_SO_T0_"(ptr %__first.coerce, ptr %__last.coerce)
  br label %common.ret1

common.ret1:                                      ; preds = %if.end, %if.then
  ret void

if.end:                                           ; preds = %entry
  %div1920 = lshr i64 %sub.ptr.div.i, 1
  %add.ptr.i = getelementptr inbounds %"class.ue2::graph_detail::vertex_descriptor", ptr %__first.coerce, i64 %div1920
  tail call fastcc void @"_ZSt21__inplace_stable_sortIN9__gnu_cxx17__normal_iteratorIPN3ue212graph_detail17vertex_descriptorINS2_9ue2_graphINS2_8NGHolderENS2_19NFAGraphVertexPropsENS2_17NFAGraphEdgePropsEEEEESt6vectorISA_SaISA_EEEENS0_5__ops15_Iter_comp_iterIZNS2_L20pruneUsingSuccessorsERS6_RNS2_14PrunePathsInfoESA_NS2_8som_typeEE3$_0EEEvT_SO_T0_"(ptr %__first.coerce, ptr %add.ptr.i)
  tail call fastcc void @"_ZSt21__inplace_stable_sortIN9__gnu_cxx17__normal_iteratorIPN3ue212graph_detail17vertex_descriptorINS2_9ue2_graphINS2_8NGHolderENS2_19NFAGraphVertexPropsENS2_17NFAGraphEdgePropsEEEEESt6vectorISA_SaISA_EEEENS0_5__ops15_Iter_comp_iterIZNS2_L20pruneUsingSuccessorsERS6_RNS2_14PrunePathsInfoESA_NS2_8som_typeEE3$_0EEEvT_SO_T0_"(ptr %add.ptr.i, ptr %__last.coerce)
  %sub.ptr.lhs.cast.i5 = ptrtoint ptr %add.ptr.i to i64
  %sub.ptr.sub.i11 = sub i64 %sub.ptr.lhs.cast.i, %sub.ptr.lhs.cast.i5
  %sub.ptr.div.i12 = ashr exact i64 %sub.ptr.sub.i11, 4
  tail call fastcc void @"_ZSt22__merge_without_bufferIN9__gnu_cxx17__normal_iteratorIPN3ue212graph_detail17vertex_descriptorINS2_9ue2_graphINS2_8NGHolderENS2_19NFAGraphVertexPropsENS2_17NFAGraphEdgePropsEEEEESt6vectorISA_SaISA_EEEElNS0_5__ops15_Iter_comp_iterIZNS2_L20pruneUsingSuccessorsERS6_RNS2_14PrunePathsInfoESA_NS2_8som_typeEE3$_0EEEvT_SO_SO_T0_SP_T1_"(ptr %__first.coerce, ptr %add.ptr.i, ptr %__last.coerce, i64 noundef %div1920, i64 noundef %sub.ptr.div.i12)
  br label %common.ret1
}